; Function Attrs: nounwind uwtable
define dso_local ptr @pq_getmsgbytes(ptr noundef captures(none) %0, i32 noundef %1) local_unnamed_addr #0 {
  %3 = icmp slt i32 %1, 0
  br i1 %3, label %11, label %4

4:                                                ; preds = %2
  %5 = getelementptr inbounds nuw i8, ptr %0, i64 8
  %6 = load i32, ptr %5, align 8
  %7 = getelementptr inbounds nuw i8, ptr %0, i64 16
  %8 = load i32, ptr %7, align 8
  %9 = sub i32 %6, %8
  %10 = icmp sgt i32 %1, %9
  br i1 %10, label %11, label %15

11:                                               ; preds = %4, %2
  %12 = tail call zeroext i1 @errstart_cold(i32 noundef 21, ptr noundef null) #11
  tail call void @llvm.assume(i1 %12)
  %13 = tail call i32 @errcode(i32 noundef 16908800) #9
  %14 = tail call i32 (ptr, ...) @errmsg(ptr noundef nonnull @.str.3) #9
  tail call void @errfinish(ptr noundef nonnull @.str.1, i32 noundef 515, ptr noundef nonnull @__func__.pq_getmsgbytes) #9
  unreachable

15:                                               ; preds = %4
  %16 = load ptr, ptr %0, align 8
  %17 = sext i32 %8 to i64
  %18 = getelementptr inbounds i8, ptr %16, i64 %17
  %19 = add i32 %8, %1
  store i32 %19, ptr %7, align 8
  ret ptr %18
}